target datalayout = "e-m:e-p270:32:32-p271:32:32-p272:64:64-i64:64-i128:128-f80:128-n8:16:32:64-S128"
target triple = "x86_64-pc-linux-gnu"

; Function Attrs: nounwind uwtable
define internal void @hostname_cleanup(ptr noundef %0) #0 {
  %2 = alloca ptr, align 8
  store ptr %0, ptr %2, align 8, !tbaa !25
  %3 = load ptr, ptr %2, align 8, !tbaa !25
  %4 = icmp ne ptr null, %3
  br i1 %4, label %5, label %7

5:                                                ; preds = %1
  %6 = load ptr, ptr %2, align 8, !tbaa !25
  call void @free(ptr noundef %6) #10
  br label %7

7:                                                ; preds = %5, %1
  ret void
}